; ModuleID = '4/2052.c'
source_filename = "4/2052.c"
target datalayout = "e-m:e-p270:32:32-p271:32:32-p272:64:64-i64:64-f80:128-n8:16:32:64-S128"
target triple = "x86_64-pc-linux-gnu"

@.str = private unnamed_addr constant [6 x i8] c"%d %d\00", align 1
@.str.1 = private unnamed_addr constant [3 x i8] c"%d\00", align 1
@.str.2 = private unnamed_addr constant [4 x i8] c"%d\0A\00", align 1

; Function Attrs: noinline nounwind uwtable
define dso_local void @main() #0 {
  %1 = alloca i32, align 4
  %2 = alloca i32, align 4
  %3 = alloca i32, align 4
  %4 = alloca i32, align 4
  %5 = alloca i32, align 4
  %6 = alloca [100 x i32*], align 16
  store i32 0, i32* %1, align 4
  br label %7

7:                                                ; preds = %17, %0
  %8 = load i32, i32* %1, align 4
  %9 = icmp slt i32 %8, 100
  br i1 %9, label %10, label %20

10:                                               ; preds = %7
  %11 = call noalias i8* @malloc(i64 400) #3
  %12 = bitcast i8* %11 to i32*
  %13 = getelementptr inbounds [100 x i32*], [100 x i32*]* %6, i64 0, i64 0
  %14 = load i32, i32* %1, align 4
  %15 = sext i32 %14 to i64
  %16 = getelementptr inbounds i32*, i32** %13, i64 %15
  store i32* %12, i32** %16, align 8
  br label %17

17:                                               ; preds = %10
  %18 = load i32, i32* %1, align 4
  %19 = add nsw i32 %18, 1
  store i32 %19, i32* %1, align 4
  br label %7

20:                                               ; preds = %7
  %21 = call i32 (i8*, ...) @__isoc99_scanf(i8* getelementptr inbounds ([6 x i8], [6 x i8]* @.str, i64 0, i64 0), i32* %4, i32* %5)
  store i32 0, i32* %1, align 4
  br label %22

22:                                               ; preds = %45, %20
  %23 = load i32, i32* %1, align 4
  %24 = load i32, i32* %4, align 4
  %25 = icmp slt i32 %23, %24
  br i1 %25, label %26, label %48

26:                                               ; preds = %22
  store i32 0, i32* %2, align 4
  br label %27

27:                                               ; preds = %41, %26
  %28 = load i32, i32* %2, align 4
  %29 = load i32, i32* %5, align 4
  %30 = icmp slt i32 %28, %29
  br i1 %30, label %31, label %44

31:                                               ; preds = %27
  %32 = getelementptr inbounds [100 x i32*], [100 x i32*]* %6, i64 0, i64 0
  %33 = load i32, i32* %1, align 4
  %34 = sext i32 %33 to i64
  %35 = getelementptr inbounds i32*, i32** %32, i64 %34
  %36 = load i32*, i32** %35, align 8
  %37 = load i32, i32* %2, align 4
  %38 = sext i32 %37 to i64
  %39 = getelementptr inbounds i32, i32* %36, i64 %38
  %40 = call i32 (i8*, ...) @__isoc99_scanf(i8* getelementptr inbounds ([3 x i8], [3 x i8]* @.str.1, i64 0, i64 0), i32* %39)
  br label %41

41:                                               ; preds = %31
  %42 = load i32, i32* %2, align 4
  %43 = add nsw i32 %42, 1
  store i32 %43, i32* %2, align 4
  br label %27

44:                                               ; preds = %27
  br label %45

45:                                               ; preds = %44
  %46 = load i32, i32* %1, align 4
  %47 = add nsw i32 %46, 1
  store i32 %47, i32* %1, align 4
  br label %22

48:                                               ; preds = %22
  store i32 0, i32* %3, align 4
  br label %49

49:                                               ; preds = %88, %48
  %50 = load i32, i32* %3, align 4
  %51 = load i32, i32* %4, align 4
  %52 = load i32, i32* %5, align 4
  %53 = add nsw i32 %51, %52
  %54 = sub nsw i32 %53, 2
  %55 = icmp sle i32 %50, %54
  br i1 %55, label %56, label %91

56:                                               ; preds = %49
  store i32 0, i32* %1, align 4
  br label %57

57:                                               ; preds = %84, %56
  %58 = load i32, i32* %1, align 4
  %59 = load i32, i32* %3, align 4
  %60 = icmp sle i32 %58, %59
  br i1 %60, label %61, label %87

61:                                               ; preds = %57
  %62 = load i32, i32* %3, align 4
  %63 = load i32, i32* %1, align 4
  %64 = sub nsw i32 %62, %63
  store i32 %64, i32* %2, align 4
  %65 = load i32, i32* %1, align 4
  %66 = load i32, i32* %4, align 4
  %67 = icmp slt i32 %65, %66
  br i1 %67, label %68, label %83

68:                                               ; preds = %61
  %69 = load i32, i32* %2, align 4
  %70 = load i32, i32* %5, align 4
  %71 = icmp slt i32 %69, %70
  br i1 %71, label %72, label %83

72:                                               ; preds = %68
  %73 = getelementptr inbounds [100 x i32*], [100 x i32*]* %6, i64 0, i64 0
  %74 = load i32, i32* %1, align 4
  %75 = sext i32 %74 to i64
  %76 = getelementptr inbounds i32*, i32** %73, i64 %75
  %77 = load i32*, i32** %76, align 8
  %78 = load i32, i32* %2, align 4
  %79 = sext i32 %78 to i64
  %80 = getelementptr inbounds i32, i32* %77, i64 %79
  %81 = load i32, i32* %80, align 4
  %82 = call i32 (i8*, ...) @printf(i8* getelementptr inbounds ([4 x i8], [4 x i8]* @.str.2, i64 0, i64 0), i32 %81)
  br label %83

83:                                               ; preds = %72, %68, %61
  br label %84

84:                                               ; preds = %83
  %85 = load i32, i32* %1, align 4
  %86 = add nsw i32 %85, 1
  store i32 %86, i32* %1, align 4
  br label %57

87:                                               ; preds = %57
  br label %88

88:                                               ; preds = %87
  %89 = load i32, i32* %3, align 4
  %90 = add nsw i32 %89, 1
  store i32 %90, i32* %3, align 4
  br label %49

91:                                               ; preds = %49
  ret void
}

; Function Attrs: nounwind
declare dso_local noalias i8* @malloc(i64) #1

declare dso_local i32 @__isoc99_scanf(i8*, ...) #2

declare dso_local i32 @printf(i8*, ...) #2


!llvm.module.flags = !{!0}
!llvm.ident = !{!1}

!0 = !{i32 1, !"wchar_size", i32 4}
!1 = !{!"clang version 10.0.0-4ubuntu1 "}
